; Function Attrs: nounwind uwtable
define nonnull ptr @l_Lean_Elab_FixedParamPerm_isFixed___boxed(ptr noundef %0, ptr noundef %1) local_unnamed_addr #1 {
  %3 = getelementptr i8, ptr %0, i64 8
  %.val.i = load i64, ptr %3, align 8, !tbaa !12
  %4 = shl i64 %.val.i, 1
  %5 = or disjoint i64 %4, 1
  %6 = inttoptr i64 %5 to ptr
  %7 = ptrtoint ptr %1 to i64
  %8 = and i64 %7, 1
  %.not.i8 = icmp eq i64 %8, 0
  br i1 %.not.i8, label %lean_dec.exit12.i, label %9, !prof !14

9:                                                ; preds = %2
  %10 = icmp ult ptr %1, %6
  br i1 %10, label %12, label %lean_dec.exit5

lean_dec.exit12.i:                                ; preds = %2
  %11 = tail call zeroext i1 @lean_nat_big_lt(ptr noundef %1, ptr noundef nonnull %6) #5
  br i1 %11, label %12, label %l_Lean_Elab_FixedParamPerm_isFixed.exit.thread11

12:                                               ; preds = %lean_dec.exit12.i, %9
  %13 = lshr i64 %7, 1
  %14 = getelementptr inbounds nuw i8, ptr %0, i64 24
  %15 = getelementptr inbounds nuw [0 x ptr], ptr %14, i64 0, i64 %13
  %16 = load ptr, ptr %15, align 8, !tbaa !9
  %17 = ptrtoint ptr %16 to i64
  %18 = and i64 %17, 1
  %.not.i.i.i = icmp eq i64 %18, 0
  br i1 %.not.i.i.i, label %19, label %lean_obj_tag.exit.i

19:                                               ; preds = %12
  %.val.i.i.i.i = load i32, ptr %16, align 4, !tbaa !4
  %20 = icmp sgt i32 %.val.i.i.i.i, 0
  br i1 %20, label %21, label %23, !prof !11

21:                                               ; preds = %19
  %22 = add nuw i32 %.val.i.i.i.i, 1
  store i32 %22, ptr %16, align 4, !tbaa !4
  br label %lean_obj_tag.exit.thread.i

23:                                               ; preds = %19
  %.not.i.i.i.i = icmp eq i32 %.val.i.i.i.i, 0
  br i1 %.not.i.i.i.i, label %lean_obj_tag.exit.thread.i, label %24

24:                                               ; preds = %23
  tail call void @lean_inc_ref_cold(ptr noundef nonnull %16) #5
  br label %lean_obj_tag.exit.thread.i

lean_obj_tag.exit.i:                              ; preds = %12
  %25 = and i64 %17, 8589934590
  %26 = icmp ne i64 %25, 0
  %spec.select.i = zext i1 %26 to i8
  br label %l_Lean_Elab_FixedParamPerm_isFixed.exit

lean_obj_tag.exit.thread.i:                       ; preds = %24, %23, %21
  %27 = getelementptr i8, ptr %16, i64 4
  %.val.i.i = load i32, ptr %27, align 4
  %28 = icmp ult i32 %.val.i.i, 16777216
  br i1 %28, label %l_Lean_Elab_FixedParamPerm_isFixed.exit, label %.thread.i

.thread.i:                                        ; preds = %lean_obj_tag.exit.thread.i
  %29 = load i32, ptr %16, align 4, !tbaa !4
  %30 = icmp sgt i32 %29, 1
  br i1 %30, label %31, label %33, !prof !11

31:                                               ; preds = %.thread.i
  %32 = add nsw i32 %29, -1
  store i32 %32, ptr %16, align 4, !tbaa !4
  br label %l_Lean_Elab_FixedParamPerm_isFixed.exit

33:                                               ; preds = %.thread.i
  %.not.i13.i = icmp eq i32 %29, 0
  br i1 %.not.i13.i, label %l_Lean_Elab_FixedParamPerm_isFixed.exit, label %34

34:                                               ; preds = %33
  tail call void @lean_dec_ref_cold(ptr noundef nonnull %16) #5
  br label %l_Lean_Elab_FixedParamPerm_isFixed.exit

l_Lean_Elab_FixedParamPerm_isFixed.exit:          ; preds = %lean_obj_tag.exit.i, %lean_obj_tag.exit.thread.i, %31, %33, %34
  %.0.i = phi i8 [ 0, %lean_obj_tag.exit.thread.i ], [ 1, %34 ], [ 1, %33 ], [ 1, %31 ], [ %spec.select.i, %lean_obj_tag.exit.i ]
  br i1 %.not.i8, label %l_Lean_Elab_FixedParamPerm_isFixed.exit.thread11, label %lean_dec.exit5

l_Lean_Elab_FixedParamPerm_isFixed.exit.thread11: ; preds = %lean_dec.exit12.i, %l_Lean_Elab_FixedParamPerm_isFixed.exit
  %.0.i13 = phi i8 [ %.0.i, %l_Lean_Elab_FixedParamPerm_isFixed.exit ], [ 0, %lean_dec.exit12.i ]
  %35 = load i32, ptr %1, align 4, !tbaa !4
  %36 = icmp sgt i32 %35, 1
  br i1 %36, label %37, label %39, !prof !11

37:                                               ; preds = %l_Lean_Elab_FixedParamPerm_isFixed.exit.thread11
  %38 = add nsw i32 %35, -1
  store i32 %38, ptr %1, align 4, !tbaa !4
  br label %lean_dec.exit5

39:                                               ; preds = %l_Lean_Elab_FixedParamPerm_isFixed.exit.thread11
  %.not.i = icmp eq i32 %35, 0
  br i1 %.not.i, label %lean_dec.exit5, label %40

40:                                               ; preds = %39
  tail call void @lean_dec_ref_cold(ptr noundef nonnull %1) #5
  br label %lean_dec.exit5

lean_dec.exit5:                                   ; preds = %9, %40, %39, %37, %l_Lean_Elab_FixedParamPerm_isFixed.exit
  %.0.i10 = phi i8 [ %.0.i, %l_Lean_Elab_FixedParamPerm_isFixed.exit ], [ %.0.i13, %37 ], [ %.0.i13, %39 ], [ %.0.i13, %40 ], [ 0, %9 ]
  %41 = ptrtoint ptr %0 to i64
  %42 = and i64 %41, 1
  %.not14 = icmp eq i64 %42, 0
  br i1 %.not14, label %43, label %lean_dec.exit

43:                                               ; preds = %lean_dec.exit5
  %44 = load i32, ptr %0, align 4, !tbaa !4
  %45 = icmp sgt i32 %44, 1
  br i1 %45, label %46, label %48, !prof !11

46:                                               ; preds = %43
  %47 = add nsw i32 %44, -1
  store i32 %47, ptr %0, align 4, !tbaa !4
  br label %lean_dec.exit

48:                                               ; preds = %43
  %.not.i6 = icmp eq i32 %44, 0
  br i1 %.not.i6, label %lean_dec.exit, label %49

49:                                               ; preds = %48
  tail call void @lean_dec_ref_cold(ptr noundef nonnull %0) #5
  br label %lean_dec.exit

lean_dec.exit:                                    ; preds = %49, %48, %46, %lean_dec.exit5
  %50 = zext nneg i8 %.0.i10 to i64
  %51 = shl nuw nsw i64 %50, 1
  %52 = or disjoint i64 %51, 1
  %53 = inttoptr i64 %52 to ptr
  ret ptr %53
}